target datalayout = "e-m:e-p270:32:32-p271:32:32-p272:64:64-i64:64-i128:128-f80:128-n8:16:32:64-S128"
target triple = "x86_64-pc-linux-gnu"

%"class.absl::Span" = type { ptr, i64 }

; Function Attrs: mustprogress nounwind uwtable
define linkonce_odr dso_local void @_ZN4absl4SpanIcE13remove_prefixEm(ptr noundef nonnull align 8 dereferenceable(16) %0, i64 noundef %1) #2 comdat align 2 {
  %3 = alloca ptr, align 8
  %4 = alloca i64, align 8
  store ptr %0, ptr %3, align 8, !tbaa !8
  store i64 %1, ptr %4, align 8, !tbaa !4
  %5 = load ptr, ptr %3, align 8
  %6 = load i64, ptr %4, align 8, !tbaa !4
  %7 = getelementptr inbounds nuw %"class.absl::Span", ptr %5, i32 0, i32 0
  %8 = load ptr, ptr %7, align 8, !tbaa !20
  %9 = getelementptr inbounds nuw i8, ptr %8, i64 %6
  store ptr %9, ptr %7, align 8, !tbaa !20
  %10 = load i64, ptr %4, align 8, !tbaa !4
  %11 = getelementptr inbounds nuw %"class.absl::Span", ptr %5, i32 0, i32 1
  %12 = load i64, ptr %11, align 8, !tbaa !13
  %13 = sub i64 %12, %10
  store i64 %13, ptr %11, align 8, !tbaa !13
  ret void
}

; Function Attrs: mustprogress nounwind uwtable
define linkonce_odr dso_local noundef nonnull align 1 dereferenceable(1) ptr @_ZNK4absl4SpanIcEixEm(ptr noundef nonnull align 8 dereferenceable(16) %0, i64 noundef %1) #2 comdat align 2 {
  %3 = alloca ptr, align 8
  %4 = alloca i64, align 8
  store ptr %0, ptr %3, align 8, !tbaa !8
  store i64 %1, ptr %4, align 8, !tbaa !4
  %5 = load ptr, ptr %3, align 8
  %6 = getelementptr inbounds nuw %"class.absl::Span", ptr %5, i32 0, i32 0
  %7 = load ptr, ptr %6, align 8, !tbaa !20
  %8 = load i64, ptr %4, align 8, !tbaa !4
  %9 = getelementptr inbounds nuw i8, ptr %7, i64 %8
  ret ptr %9
}

; Function Attrs: mustprogress nounwind uwtable
define internal void @_ZN4absl12log_internal12_GLOBAL__N_115EncodeRawVarintEmmPNS_4SpanIcEE(i64 noundef %0, i64 noundef %1, ptr noundef %2) #2 {
  %4 = alloca i64, align 8
  %5 = alloca i64, align 8
  %6 = alloca ptr, align 8
  %7 = alloca i64, align 8
  store i64 %0, ptr %4, align 8, !tbaa !4
  store i64 %1, ptr %5, align 8, !tbaa !4
  store ptr %2, ptr %6, align 8, !tbaa !8
  call void @llvm.lifetime.start.p0(i64 8, ptr %7) #6
  store i64 0, ptr %7, align 8, !tbaa !4
  br label %8

8:                                                ; preds = %29, %3
  %9 = load i64, ptr %7, align 8, !tbaa !4
  %10 = load i64, ptr %5, align 8, !tbaa !4
  %11 = icmp ult i64 %9, %10
  br i1 %11, label %13, label %12

12:                                               ; preds = %8
  call void @llvm.lifetime.end.p0(i64 8, ptr %7) #6
  br label %32

13:                                               ; preds = %8
  %14 = load i64, ptr %4, align 8, !tbaa !4
  %15 = and i64 %14, 127
  %16 = load i64, ptr %7, align 8, !tbaa !4
  %17 = add i64 %16, 1
  %18 = load i64, ptr %5, align 8, !tbaa !4
  %19 = icmp eq i64 %17, %18
  %20 = select i1 %19, i32 0, i32 128
  %21 = sext i32 %20 to i64
  %22 = or i64 %15, %21
  %23 = trunc i64 %22 to i8
  %24 = load ptr, ptr %6, align 8, !tbaa !8
  %25 = load i64, ptr %7, align 8, !tbaa !4
  %26 = call noundef nonnull align 1 dereferenceable(1) ptr @_ZNK4absl4SpanIcEixEm(ptr noundef nonnull align 8 dereferenceable(16) %24, i64 noundef %25) #6
  store i8 %23, ptr %26, align 1, !tbaa !16
  %27 = load i64, ptr %4, align 8, !tbaa !4
  %28 = lshr i64 %27, 7
  store i64 %28, ptr %4, align 8, !tbaa !4
  br label %29

29:                                               ; preds = %13
  %30 = load i64, ptr %7, align 8, !tbaa !4
  %31 = add i64 %30, 1
  store i64 %31, ptr %7, align 8, !tbaa !4
  br label %8, !llvm.loop !17

32:                                               ; preds = %12
  %33 = load ptr, ptr %6, align 8, !tbaa !8
  %34 = load i64, ptr %5, align 8, !tbaa !4
  call void @_ZN4absl4SpanIcE13remove_prefixEm(ptr noundef nonnull align 8 dereferenceable(16) %33, i64 noundef %34) #6
  ret void
}

; Function Attrs: mustprogress nounwind uwtable
define linkonce_odr dso_local void @_ZN4absl4SpanIcE13remove_suffixEm(ptr noundef nonnull align 8 dereferenceable(16) %0, i64 noundef %1) #2 comdat align 2 {
  %3 = alloca ptr, align 8
  %4 = alloca i64, align 8
  store ptr %0, ptr %3, align 8, !tbaa !8
  store i64 %1, ptr %4, align 8, !tbaa !4
  %5 = load ptr, ptr %3, align 8
  %6 = load i64, ptr %4, align 8, !tbaa !4
  %7 = getelementptr inbounds nuw %"class.absl::Span", ptr %5, i32 0, i32 1
  %8 = load i64, ptr %7, align 8, !tbaa !13
  %9 = sub i64 %8, %6
  store i64 %9, ptr %7, align 8, !tbaa !13
  ret void
}

; Function Attrs: mustprogress nounwind uwtable
define linkonce_odr dso_local noundef i64 @_ZNK4absl4SpanIcE4sizeEv(ptr noundef nonnull align 8 dereferenceable(16) %0) #2 comdat align 2 {
  %2 = alloca ptr, align 8
  store ptr %0, ptr %2, align 8, !tbaa !8
  %3 = load ptr, ptr %2, align 8
  %4 = getelementptr inbounds nuw %"class.absl::Span", ptr %3, i32 0, i32 1
  %5 = load i64, ptr %4, align 8, !tbaa !13
  ret i64 %5
}

; Function Attrs: mustprogress uwtable
define linkonce_odr dso_local noundef i64 @_ZN4absl12log_internal10VarintSizeEm(i64 noundef %0) #0 comdat {
  %2 = alloca i64, align 8
  store i64 %0, ptr %2, align 8, !tbaa !4
  %3 = load i64, ptr %2, align 8, !tbaa !4
  %4 = icmp ult i64 %3, 128
  br i1 %4, label %5, label %6

5:                                                ; preds = %1
  br label %11

6:                                                ; preds = %1
  %7 = load i64, ptr %2, align 8, !tbaa !4
  %8 = lshr i64 %7, 7
  %9 = call noundef i64 @_ZN4absl12log_internal10VarintSizeEm(i64 noundef %8)
  %10 = add i64 1, %9
  br label %11

11:                                               ; preds = %6, %5
  %12 = phi i64 [ 1, %5 ], [ %10, %6 ]
  ret i64 %12
}

; Function Attrs: mustprogress nounwind uwtable
define linkonce_odr dso_local noundef i64 @_ZN4absl12log_internal11MakeTagTypeEmNS0_8WireTypeE(i64 noundef %0, i64 noundef %1) #2 comdat {
  %3 = alloca i64, align 8
  %4 = alloca i64, align 8
  store i64 %0, ptr %3, align 8, !tbaa !4
  store i64 %1, ptr %4, align 8, !tbaa !11
  %5 = load i64, ptr %3, align 8, !tbaa !4
  %6 = shl i64 %5, 3
  %7 = load i64, ptr %4, align 8, !tbaa !11
  %8 = or i64 %6, %7
  ret i64 %8
}

; Function Attrs: mustprogress uwtable
define dso_local noundef zeroext i1 @_ZN4absl12log_internal12EncodeVarintEmmPNS_4SpanIcEE(i64 noundef %0, i64 noundef %1, ptr noundef %2) #0 {
  %4 = alloca i1, align 1
  %5 = alloca i64, align 8
  %6 = alloca i64, align 8
  %7 = alloca ptr, align 8
  %8 = alloca i64, align 8
  %9 = alloca i64, align 8
  %10 = alloca i64, align 8
  %11 = alloca i32, align 4
  store i64 %0, ptr %5, align 8, !tbaa !4
  store i64 %1, ptr %6, align 8, !tbaa !4
  store ptr %2, ptr %7, align 8, !tbaa !8
  call void @llvm.lifetime.start.p0(i64 8, ptr %8) #6
  %12 = load i64, ptr %5, align 8, !tbaa !4
  %13 = call noundef i64 @_ZN4absl12log_internal11MakeTagTypeEmNS0_8WireTypeE(i64 noundef %12, i64 noundef 0)
  store i64 %13, ptr %8, align 8, !tbaa !4
  call void @llvm.lifetime.start.p0(i64 8, ptr %9) #6
  %14 = load i64, ptr %8, align 8, !tbaa !4
  %15 = call noundef i64 @_ZN4absl12log_internal10VarintSizeEm(i64 noundef %14)
  store i64 %15, ptr %9, align 8, !tbaa !4
  call void @llvm.lifetime.start.p0(i64 8, ptr %10) #6
  %16 = load i64, ptr %6, align 8, !tbaa !4
  %17 = call noundef i64 @_ZN4absl12log_internal10VarintSizeEm(i64 noundef %16)
  store i64 %17, ptr %10, align 8, !tbaa !4
  %18 = load i64, ptr %9, align 8, !tbaa !4
  %19 = load i64, ptr %10, align 8, !tbaa !4
  %20 = add i64 %18, %19
  %21 = load ptr, ptr %7, align 8, !tbaa !8
  %22 = call noundef i64 @_ZNK4absl4SpanIcE4sizeEv(ptr noundef nonnull align 8 dereferenceable(16) %21) #6
  %23 = icmp ugt i64 %20, %22
  br i1 %23, label %24, label %28

24:                                               ; preds = %3
  %25 = load ptr, ptr %7, align 8, !tbaa !8
  %26 = load ptr, ptr %7, align 8, !tbaa !8
  %27 = call noundef i64 @_ZNK4absl4SpanIcE4sizeEv(ptr noundef nonnull align 8 dereferenceable(16) %26) #6
  call void @_ZN4absl4SpanIcE13remove_suffixEm(ptr noundef nonnull align 8 dereferenceable(16) %25, i64 noundef %27) #6
  store i1 false, ptr %4, align 1
  store i32 1, ptr %11, align 4
  br label %35

28:                                               ; preds = %3
  %29 = load i64, ptr %8, align 8, !tbaa !4
  %30 = load i64, ptr %9, align 8, !tbaa !4
  %31 = load ptr, ptr %7, align 8, !tbaa !8
  call void @_ZN4absl12log_internal12_GLOBAL__N_115EncodeRawVarintEmmPNS_4SpanIcEE(i64 noundef %29, i64 noundef %30, ptr noundef %31)
  %32 = load i64, ptr %6, align 8, !tbaa !4
  %33 = load i64, ptr %10, align 8, !tbaa !4
  %34 = load ptr, ptr %7, align 8, !tbaa !8
  call void @_ZN4absl12log_internal12_GLOBAL__N_115EncodeRawVarintEmmPNS_4SpanIcEE(i64 noundef %32, i64 noundef %33, ptr noundef %34)
  store i1 true, ptr %4, align 1
  store i32 1, ptr %11, align 4
  br label %35

35:                                               ; preds = %28, %24
  call void @llvm.lifetime.end.p0(i64 8, ptr %10) #6
  call void @llvm.lifetime.end.p0(i64 8, ptr %9) #6
  call void @llvm.lifetime.end.p0(i64 8, ptr %8) #6
  %36 = load i1, ptr %4, align 1
  ret i1 %36
}