; Function Attrs: mustprogress nofree norecurse nosync nounwind memory(write, argmem: readwrite, inaccessiblemem: none) uwtable
define dso_local noundef zeroext i1 @_ZN4absl12log_internal12EncodeVarintEmmPNS_4SpanIcEE(i64 noundef %0, i64 noundef %1, ptr noundef captures(none) %2) local_unnamed_addr #0 {
  %4 = shl i64 %0, 3
  %5 = icmp ult i64 %4, 128
  br i1 %5, label %_ZN4absl12log_internal10VarintSizeEm.exit, label %tailrecurse.i

tailrecurse.i:                                    ; preds = %3, %tailrecurse.i
  %.tr3.i = phi i64 [ %6, %tailrecurse.i ], [ %4, %3 ]
  %accumulator.tr2.i = phi i64 [ %7, %tailrecurse.i ], [ 0, %3 ]
  %6 = lshr i64 %.tr3.i, 7
  %7 = add nuw nsw i64 %accumulator.tr2.i, 1
  %8 = icmp ult i64 %.tr3.i, 16384
  br i1 %8, label %tailrecurse._crit_edge.loopexit.i, label %tailrecurse.i

tailrecurse._crit_edge.loopexit.i:                ; preds = %tailrecurse.i
  %9 = add nuw i64 %accumulator.tr2.i, 2
  br label %_ZN4absl12log_internal10VarintSizeEm.exit

_ZN4absl12log_internal10VarintSizeEm.exit:        ; preds = %3, %tailrecurse._crit_edge.loopexit.i
  %accumulator.tr.lcssa.i = phi i64 [ 1, %3 ], [ %9, %tailrecurse._crit_edge.loopexit.i ]
  %10 = icmp ult i64 %1, 128
  br i1 %10, label %_ZN4absl12log_internal10VarintSizeEm.exit19, label %tailrecurse.i14

tailrecurse.i14:                                  ; preds = %_ZN4absl12log_internal10VarintSizeEm.exit, %tailrecurse.i14
  %.tr3.i15 = phi i64 [ %11, %tailrecurse.i14 ], [ %1, %_ZN4absl12log_internal10VarintSizeEm.exit ]
  %accumulator.tr2.i16 = phi i64 [ %12, %tailrecurse.i14 ], [ 0, %_ZN4absl12log_internal10VarintSizeEm.exit ]
  %11 = lshr i64 %.tr3.i15, 7
  %12 = add nuw nsw i64 %accumulator.tr2.i16, 1
  %13 = icmp ult i64 %.tr3.i15, 16384
  br i1 %13, label %tailrecurse._crit_edge.loopexit.i17, label %tailrecurse.i14

tailrecurse._crit_edge.loopexit.i17:              ; preds = %tailrecurse.i14
  %14 = add nuw i64 %accumulator.tr2.i16, 2
  br label %_ZN4absl12log_internal10VarintSizeEm.exit19

_ZN4absl12log_internal10VarintSizeEm.exit19:      ; preds = %_ZN4absl12log_internal10VarintSizeEm.exit, %tailrecurse._crit_edge.loopexit.i17
  %accumulator.tr.lcssa.i18 = phi i64 [ 1, %_ZN4absl12log_internal10VarintSizeEm.exit ], [ %14, %tailrecurse._crit_edge.loopexit.i17 ]
  %15 = add i64 %accumulator.tr.lcssa.i18, %accumulator.tr.lcssa.i
  %16 = getelementptr inbounds nuw i8, ptr %2, i64 8
  %17 = load i64, ptr %16, align 8, !tbaa !4
  %18 = icmp ule i64 %15, %17
  br i1 %18, label %.lr.ph.i, label %45

.lr.ph.i:                                         ; preds = %_ZN4absl12log_internal10VarintSizeEm.exit19, %.lr.ph.i
  %.013.i = phi i64 [ %20, %.lr.ph.i ], [ 0, %_ZN4absl12log_internal10VarintSizeEm.exit19 ]
  %.01012.i = phi i64 [ %27, %.lr.ph.i ], [ %4, %_ZN4absl12log_internal10VarintSizeEm.exit19 ]
  %19 = and i64 %.01012.i, 127
  %20 = add nuw nsw i64 %.013.i, 1
  %21 = icmp eq i64 %20, %accumulator.tr.lcssa.i
  %22 = select i1 %21, i64 0, i64 128
  %23 = or disjoint i64 %22, %19
  %24 = trunc nuw i64 %23 to i8
  %25 = load ptr, ptr %2, align 8, !tbaa !11
  %26 = getelementptr inbounds nuw i8, ptr %25, i64 %.013.i
  store i8 %24, ptr %26, align 1, !tbaa !12
  %27 = lshr i64 %.01012.i, 7
  br i1 %21, label %_ZN4absl12log_internal12_GLOBAL__N_115EncodeRawVarintEmmPNS_4SpanIcEE.exit, label %.lr.ph.i, !llvm.loop !13

_ZN4absl12log_internal12_GLOBAL__N_115EncodeRawVarintEmmPNS_4SpanIcEE.exit: ; preds = %.lr.ph.i
  %28 = load ptr, ptr %2, align 8, !tbaa !11
  %29 = getelementptr inbounds nuw i8, ptr %28, i64 %accumulator.tr.lcssa.i
  store ptr %29, ptr %2, align 8, !tbaa !11
  %30 = load i64, ptr %16, align 8, !tbaa !4
  %31 = sub i64 %30, %accumulator.tr.lcssa.i
  store i64 %31, ptr %16, align 8, !tbaa !4
  br label %.lr.ph.i20

.lr.ph.i20:                                       ; preds = %_ZN4absl12log_internal12_GLOBAL__N_115EncodeRawVarintEmmPNS_4SpanIcEE.exit, %.lr.ph.i20
  %.013.i21 = phi i64 [ %33, %.lr.ph.i20 ], [ 0, %_ZN4absl12log_internal12_GLOBAL__N_115EncodeRawVarintEmmPNS_4SpanIcEE.exit ]
  %.01012.i22 = phi i64 [ %40, %.lr.ph.i20 ], [ %1, %_ZN4absl12log_internal12_GLOBAL__N_115EncodeRawVarintEmmPNS_4SpanIcEE.exit ]
  %32 = and i64 %.01012.i22, 127
  %33 = add nuw nsw i64 %.013.i21, 1
  %34 = icmp eq i64 %33, %accumulator.tr.lcssa.i18
  %35 = select i1 %34, i64 0, i64 128
  %36 = or disjoint i64 %35, %32
  %37 = trunc nuw i64 %36 to i8
  %38 = load ptr, ptr %2, align 8, !tbaa !11
  %39 = getelementptr inbounds nuw i8, ptr %38, i64 %.013.i21
  store i8 %37, ptr %39, align 1, !tbaa !12
  %40 = lshr i64 %.01012.i22, 7
  br i1 %34, label %_ZN4absl12log_internal12_GLOBAL__N_115EncodeRawVarintEmmPNS_4SpanIcEE.exit24, label %.lr.ph.i20, !llvm.loop !13

_ZN4absl12log_internal12_GLOBAL__N_115EncodeRawVarintEmmPNS_4SpanIcEE.exit24: ; preds = %.lr.ph.i20
  %41 = load ptr, ptr %2, align 8, !tbaa !11
  %42 = getelementptr inbounds nuw i8, ptr %41, i64 %accumulator.tr.lcssa.i18
  store ptr %42, ptr %2, align 8, !tbaa !11
  %43 = load i64, ptr %16, align 8, !tbaa !4
  %44 = sub i64 %43, %accumulator.tr.lcssa.i18
  br label %45

45:                                               ; preds = %_ZN4absl12log_internal10VarintSizeEm.exit19, %_ZN4absl12log_internal12_GLOBAL__N_115EncodeRawVarintEmmPNS_4SpanIcEE.exit24
  %storemerge = phi i64 [ %44, %_ZN4absl12log_internal12_GLOBAL__N_115EncodeRawVarintEmmPNS_4SpanIcEE.exit24 ], [ 0, %_ZN4absl12log_internal10VarintSizeEm.exit19 ]
  store i64 %storemerge, ptr %16, align 8, !tbaa !4
  ret i1 %18
}